target datalayout = "e-m:e-p270:32:32-p271:32:32-p272:64:64-i64:64-i128:128-f80:128-n8:16:32:64-S128"
target triple = "x86_64-pc-linux-gnu"

%struct.Maj3_Man_t_ = type { i32, i32, i32, i32, i32, ptr, ptr, [32 x [32 x i32]], [32 x i32], [2 x [32 x i32]], [3 x i32], ptr }

; Function Attrs: nounwind uwtable
define internal i32 @Abc_Var2Lit(i32 noundef %0, i32 noundef %1) #0 {
  %3 = alloca i32, align 4
  %4 = alloca i32, align 4
  store i32 %0, ptr %3, align 4
  store i32 %1, ptr %4, align 4
  %5 = load i32, ptr %3, align 4
  %6 = load i32, ptr %3, align 4
  %7 = add nsw i32 %5, %6
  %8 = load i32, ptr %4, align 4
  %9 = add nsw i32 %7, %8
  ret i32 %9
}

; Function Attrs: nounwind uwtable
define internal i32 @Abc_MinInt(i32 noundef %0, i32 noundef %1) #0 {
  %3 = alloca i32, align 4
  %4 = alloca i32, align 4
  store i32 %0, ptr %3, align 4
  store i32 %1, ptr %4, align 4
  %5 = load i32, ptr %3, align 4
  %6 = load i32, ptr %4, align 4
  %7 = icmp slt i32 %5, %6
  br i1 %7, label %8, label %10

8:                                                ; preds = %2
  %9 = load i32, ptr %3, align 4
  br label %12

10:                                               ; preds = %2
  %11 = load i32, ptr %4, align 4
  br label %12

12:                                               ; preds = %10, %8
  %13 = phi i32 [ %9, %8 ], [ %11, %10 ]
  ret i32 %13
}

; Function Attrs: nounwind uwtable
define internal i32 @Maj3_ManFindFanin(ptr noundef %0, i32 noundef %1, ptr noundef %2) #0 {
  %4 = alloca ptr, align 8
  %5 = alloca i32, align 4
  %6 = alloca ptr, align 8
  %7 = alloca i32, align 4
  %8 = alloca i32, align 4
  store ptr %0, ptr %4, align 8
  store i32 %1, ptr %5, align 4
  store ptr %2, ptr %6, align 8
  store i32 0, ptr %8, align 4
  %9 = load ptr, ptr %4, align 8
  %10 = getelementptr inbounds %struct.Maj3_Man_t_, ptr %9, i32 0, i32 10
  %11 = getelementptr inbounds [3 x i32], ptr %10, i64 0, i64 2
  store i32 0, ptr %11, align 8
  %12 = load ptr, ptr %4, align 8
  %13 = getelementptr inbounds %struct.Maj3_Man_t_, ptr %12, i32 0, i32 10
  %14 = getelementptr inbounds [3 x i32], ptr %13, i64 0, i64 1
  store i32 0, ptr %14, align 4
  %15 = load ptr, ptr %4, align 8
  %16 = getelementptr inbounds %struct.Maj3_Man_t_, ptr %15, i32 0, i32 10
  %17 = getelementptr inbounds [3 x i32], ptr %16, i64 0, i64 0
  store i32 0, ptr %17, align 8
  store i32 0, ptr %7, align 4
  br label %18

18:                                               ; preds = %122, %3
  %19 = load i32, ptr %7, align 4
  %20 = load i32, ptr %5, align 4
  %21 = icmp slt i32 %19, %20
  br i1 %21, label %22, label %125

22:                                               ; preds = %18
  %23 = load ptr, ptr %4, align 8
  %24 = getelementptr inbounds %struct.Maj3_Man_t_, ptr %23, i32 0, i32 7
  %25 = load i32, ptr %5, align 4
  %26 = sext i32 %25 to i64
  %27 = getelementptr inbounds [32 x [32 x i32]], ptr %24, i64 0, i64 %26
  %28 = load i32, ptr %7, align 4
  %29 = sext i32 %28 to i64
  %30 = getelementptr inbounds [32 x i32], ptr %27, i64 0, i64 %29
  %31 = load i32, ptr %30, align 4
  %32 = icmp slt i32 %31, 0
  br i1 %32, label %33, label %34

33:                                               ; preds = %22
  br label %122

34:                                               ; preds = %22
  %35 = load ptr, ptr %4, align 8
  %36 = getelementptr inbounds %struct.Maj3_Man_t_, ptr %35, i32 0, i32 7
  %37 = load i32, ptr %5, align 4
  %38 = sext i32 %37 to i64
  %39 = getelementptr inbounds [32 x [32 x i32]], ptr %36, i64 0, i64 %38
  %40 = load i32, ptr %7, align 4
  %41 = sext i32 %40 to i64
  %42 = getelementptr inbounds [32 x i32], ptr %39, i64 0, i64 %41
  %43 = load i32, ptr %42, align 4
  %44 = icmp eq i32 %43, 1
  br i1 %44, label %45, label %57

45:                                               ; preds = %34
  %46 = load ptr, ptr %4, align 8
  %47 = getelementptr inbounds %struct.Maj3_Man_t_, ptr %46, i32 0, i32 10
  %48 = getelementptr inbounds [3 x i32], ptr %47, i64 0, i64 2
  %49 = load i32, ptr %48, align 8
  %50 = add nsw i32 %49, 1
  store i32 %50, ptr %48, align 8
  %51 = load i32, ptr %7, align 4
  %52 = load ptr, ptr %6, align 8
  %53 = load i32, ptr %8, align 4
  %54 = add nsw i32 %53, 1
  store i32 %54, ptr %8, align 4
  %55 = sext i32 %53 to i64
  %56 = getelementptr inbounds i32, ptr %52, i64 %55
  store i32 %51, ptr %56, align 4
  br label %121

57:                                               ; preds = %34
  %58 = load ptr, ptr %4, align 8
  %59 = getelementptr inbounds %struct.Maj3_Man_t_, ptr %58, i32 0, i32 11
  %60 = load ptr, ptr %59, align 8
  %61 = load ptr, ptr %4, align 8
  %62 = getelementptr inbounds %struct.Maj3_Man_t_, ptr %61, i32 0, i32 7
  %63 = load i32, ptr %5, align 4
  %64 = sext i32 %63 to i64
  %65 = getelementptr inbounds [32 x [32 x i32]], ptr %62, i64 0, i64 %64
  %66 = load i32, ptr %7, align 4
  %67 = sext i32 %66 to i64
  %68 = getelementptr inbounds [32 x i32], ptr %65, i64 0, i64 %67
  %69 = load i32, ptr %68, align 4
  %70 = call i32 @bmcg_sat_solver_read_cex_varvalue(ptr noundef %60, i32 noundef %69)
  %71 = icmp ne i32 %70, 0
  br i1 %71, label %72, label %99

72:                                               ; preds = %57
  %73 = load ptr, ptr %4, align 8
  %74 = getelementptr inbounds %struct.Maj3_Man_t_, ptr %73, i32 0, i32 7
  %75 = load i32, ptr %5, align 4
  %76 = sext i32 %75 to i64
  %77 = getelementptr inbounds [32 x [32 x i32]], ptr %74, i64 0, i64 %76
  %78 = load i32, ptr %7, align 4
  %79 = sext i32 %78 to i64
  %80 = getelementptr inbounds [32 x i32], ptr %77, i64 0, i64 %79
  %81 = load i32, ptr %80, align 4
  %82 = call i32 @Abc_Var2Lit(i32 noundef %81, i32 noundef 1)
  %83 = load ptr, ptr %4, align 8
  %84 = getelementptr inbounds %struct.Maj3_Man_t_, ptr %83, i32 0, i32 9
  %85 = getelementptr inbounds [2 x [32 x i32]], ptr %84, i64 0, i64 1
  %86 = load ptr, ptr %4, align 8
  %87 = getelementptr inbounds %struct.Maj3_Man_t_, ptr %86, i32 0, i32 10
  %88 = getelementptr inbounds [3 x i32], ptr %87, i64 0, i64 1
  %89 = load i32, ptr %88, align 4
  %90 = add nsw i32 %89, 1
  store i32 %90, ptr %88, align 4
  %91 = sext i32 %89 to i64
  %92 = getelementptr inbounds [32 x i32], ptr %85, i64 0, i64 %91
  store i32 %82, ptr %92, align 4
  %93 = load i32, ptr %7, align 4
  %94 = load ptr, ptr %6, align 8
  %95 = load i32, ptr %8, align 4
  %96 = add nsw i32 %95, 1
  store i32 %96, ptr %8, align 4
  %97 = sext i32 %95 to i64
  %98 = getelementptr inbounds i32, ptr %94, i64 %97
  store i32 %93, ptr %98, align 4
  br label %120

99:                                               ; preds = %57
  %100 = load ptr, ptr %4, align 8
  %101 = getelementptr inbounds %struct.Maj3_Man_t_, ptr %100, i32 0, i32 7
  %102 = load i32, ptr %5, align 4
  %103 = sext i32 %102 to i64
  %104 = getelementptr inbounds [32 x [32 x i32]], ptr %101, i64 0, i64 %103
  %105 = load i32, ptr %7, align 4
  %106 = sext i32 %105 to i64
  %107 = getelementptr inbounds [32 x i32], ptr %104, i64 0, i64 %106
  %108 = load i32, ptr %107, align 4
  %109 = call i32 @Abc_Var2Lit(i32 noundef %108, i32 noundef 0)
  %110 = load ptr, ptr %4, align 8
  %111 = getelementptr inbounds %struct.Maj3_Man_t_, ptr %110, i32 0, i32 9
  %112 = getelementptr inbounds [2 x [32 x i32]], ptr %111, i64 0, i64 0
  %113 = load ptr, ptr %4, align 8
  %114 = getelementptr inbounds %struct.Maj3_Man_t_, ptr %113, i32 0, i32 10
  %115 = getelementptr inbounds [3 x i32], ptr %114, i64 0, i64 0
  %116 = load i32, ptr %115, align 8
  %117 = add nsw i32 %116, 1
  store i32 %117, ptr %115, align 8
  %118 = sext i32 %116 to i64
  %119 = getelementptr inbounds [32 x i32], ptr %112, i64 0, i64 %118
  store i32 %109, ptr %119, align 4
  br label %120

120:                                              ; preds = %99, %72
  br label %121

121:                                              ; preds = %120, %45
  br label %122

122:                                              ; preds = %121, %33
  %123 = load i32, ptr %7, align 4
  %124 = add nsw i32 %123, 1
  store i32 %124, ptr %7, align 4
  br label %18, !llvm.loop !39

125:                                              ; preds = %18
  %126 = load i32, ptr %8, align 4
  ret i32 %126
}

; Function Attrs: nounwind uwtable
define i32 @Maj3_ManAddConstraintsLazy(ptr noundef %0) #0 {
  %2 = alloca i32, align 4
  %3 = alloca ptr, align 8
  %4 = alloca i32, align 4
  %5 = alloca [32 x i32], align 16
  %6 = alloca i32, align 4
  %7 = alloca i32, align 4
  %8 = alloca i32, align 4
  store ptr %0, ptr %3, align 8
  store i32 0, ptr %6, align 4
  %9 = load ptr, ptr %3, align 8
  %10 = getelementptr inbounds %struct.Maj3_Man_t_, ptr %9, i32 0, i32 0
  %11 = load i32, ptr %10, align 8
  %12 = add nsw i32 %11, 1
  store i32 %12, ptr %4, align 4
  br label %13

13:                                               ; preds = %76, %1
  %14 = load i32, ptr %4, align 4
  %15 = load ptr, ptr %3, align 8
  %16 = getelementptr inbounds %struct.Maj3_Man_t_, ptr %15, i32 0, i32 2
  %17 = load i32, ptr %16, align 8
  %18 = icmp slt i32 %14, %17
  br i1 %18, label %19, label %79

19:                                               ; preds = %13
  %20 = load ptr, ptr %3, align 8
  %21 = load i32, ptr %4, align 4
  %22 = getelementptr inbounds [32 x i32], ptr %5, i64 0, i64 0
  %23 = call i32 @Maj3_ManFindFanin(ptr noundef %20, i32 noundef %21, ptr noundef %22)
  store i32 %23, ptr %7, align 4
  %24 = load i32, ptr %7, align 4
  %25 = icmp eq i32 %24, 3
  br i1 %25, label %26, label %27

26:                                               ; preds = %19
  br label %76

27:                                               ; preds = %19
  %28 = load i32, ptr %6, align 4
  %29 = add nsw i32 %28, 1
  store i32 %29, ptr %6, align 4
  %30 = load i32, ptr %7, align 4
  %31 = icmp slt i32 %30, 3
  br i1 %31, label %32, label %48

32:                                               ; preds = %27
  %33 = load ptr, ptr %3, align 8
  %34 = getelementptr inbounds %struct.Maj3_Man_t_, ptr %33, i32 0, i32 11
  %35 = load ptr, ptr %34, align 8
  %36 = load ptr, ptr %3, align 8
  %37 = getelementptr inbounds %struct.Maj3_Man_t_, ptr %36, i32 0, i32 9
  %38 = getelementptr inbounds [2 x [32 x i32]], ptr %37, i64 0, i64 0
  %39 = getelementptr inbounds [32 x i32], ptr %38, i64 0, i64 0
  %40 = load ptr, ptr %3, align 8
  %41 = getelementptr inbounds %struct.Maj3_Man_t_, ptr %40, i32 0, i32 10
  %42 = getelementptr inbounds [3 x i32], ptr %41, i64 0, i64 0
  %43 = load i32, ptr %42, align 8
  %44 = call i32 @bmcg_sat_solver_addclause(ptr noundef %35, ptr noundef %39, i32 noundef %43)
  %45 = icmp ne i32 %44, 0
  br i1 %45, label %47, label %46

46:                                               ; preds = %32
  store i32 -1, ptr %2, align 4
  br label %81

47:                                               ; preds = %32
  br label %75

48:                                               ; preds = %27
  %49 = load i32, ptr %7, align 4
  %50 = icmp sgt i32 %49, 3
  br i1 %50, label %51, label %74

51:                                               ; preds = %48
  %52 = load ptr, ptr %3, align 8
  %53 = getelementptr inbounds %struct.Maj3_Man_t_, ptr %52, i32 0, i32 10
  %54 = getelementptr inbounds [3 x i32], ptr %53, i64 0, i64 2
  %55 = load i32, ptr %54, align 8
  %56 = sub nsw i32 4, %55
  %57 = load ptr, ptr %3, align 8
  %58 = getelementptr inbounds %struct.Maj3_Man_t_, ptr %57, i32 0, i32 10
  %59 = getelementptr inbounds [3 x i32], ptr %58, i64 0, i64 1
  %60 = load i32, ptr %59, align 4
  %61 = call i32 @Abc_MinInt(i32 noundef %56, i32 noundef %60)
  store i32 %61, ptr %8, align 4
  %62 = load ptr, ptr %3, align 8
  %63 = getelementptr inbounds %struct.Maj3_Man_t_, ptr %62, i32 0, i32 11
  %64 = load ptr, ptr %63, align 8
  %65 = load ptr, ptr %3, align 8
  %66 = getelementptr inbounds %struct.Maj3_Man_t_, ptr %65, i32 0, i32 9
  %67 = getelementptr inbounds [2 x [32 x i32]], ptr %66, i64 0, i64 1
  %68 = getelementptr inbounds [32 x i32], ptr %67, i64 0, i64 0
  %69 = load i32, ptr %8, align 4
  %70 = call i32 @bmcg_sat_solver_addclause(ptr noundef %64, ptr noundef %68, i32 noundef %69)
  %71 = icmp ne i32 %70, 0
  br i1 %71, label %73, label %72

72:                                               ; preds = %51
  store i32 -1, ptr %2, align 4
  br label %81

73:                                               ; preds = %51
  br label %74

74:                                               ; preds = %73, %48
  br label %75

75:                                               ; preds = %74, %47
  br label %76

76:                                               ; preds = %75, %26
  %77 = load i32, ptr %4, align 4
  %78 = add nsw i32 %77, 1
  store i32 %78, ptr %4, align 4
  br label %13, !llvm.loop !38

79:                                               ; preds = %13
  %80 = load i32, ptr %6, align 4
  store i32 %80, ptr %2, align 4
  br label %81

81:                                               ; preds = %79, %72, %46
  %82 = load i32, ptr %2, align 4
  ret i32 %82
}