; Function Attrs: nounwind uwtable
define i32 @Maj3_ManAddConstraintsLazy(ptr noundef %0) local_unnamed_addr #2 {
  %2 = load i32, ptr %0, align 8
  %3 = getelementptr inbounds nuw i8, ptr %0, i64 8
  %.01926 = add nsw i32 %2, 1
  %4 = load i32, ptr %3, align 8
  %5 = icmp slt i32 %.01926, %4
  br i1 %5, label %.lr.ph, label %._crit_edge

.lr.ph:                                           ; preds = %1
  %6 = getelementptr inbounds nuw i8, ptr %0, i64 4520
  %7 = getelementptr inbounds nuw i8, ptr %0, i64 4528
  %8 = getelementptr inbounds nuw i8, ptr %0, i64 4524
  %9 = getelementptr inbounds nuw i8, ptr %0, i64 40
  %10 = getelementptr inbounds nuw i8, ptr %0, i64 4536
  %11 = getelementptr inbounds nuw i8, ptr %0, i64 4392
  %12 = getelementptr inbounds nuw i8, ptr %0, i64 4264
  br label %13

13:                                               ; preds = %.lr.ph, %61
  %.01929 = phi i32 [ %.01926, %.lr.ph ], [ %.019, %61 ]
  %.019.in28 = phi i32 [ %2, %.lr.ph ], [ %.01929, %61 ]
  %.02027 = phi i32 [ 0, %.lr.ph ], [ %.1, %61 ]
  store i32 0, ptr %7, align 8
  store i32 0, ptr %8, align 4
  store i32 0, ptr %6, align 8
  %14 = icmp sgt i32 %.019.in28, -1
  br i1 %14, label %.lr.ph.i, label %.thread

.thread:                                          ; preds = %13
  %15 = add nsw i32 %.02027, 1
  br label %49

.lr.ph.i:                                         ; preds = %13
  %16 = zext nneg i32 %.01929 to i64
  br label %17

17:                                               ; preds = %44, %.lr.ph.i
  %indvars.iv.i = phi i64 [ 0, %.lr.ph.i ], [ %indvars.iv.next.i, %44 ]
  %.037.i = phi i32 [ 0, %.lr.ph.i ], [ %.1.i, %44 ]
  %18 = getelementptr inbounds nuw [32 x [32 x i32]], ptr %9, i64 0, i64 %16, i64 %indvars.iv.i
  %19 = load i32, ptr %18, align 4
  %20 = icmp slt i32 %19, 0
  br i1 %20, label %44, label %21

21:                                               ; preds = %17
  %22 = icmp eq i32 %19, 1
  br i1 %22, label %23, label %27

23:                                               ; preds = %21
  %24 = load i32, ptr %7, align 8
  %25 = add nsw i32 %24, 1
  store i32 %25, ptr %7, align 8
  %26 = add nsw i32 %.037.i, 1
  br label %44

27:                                               ; preds = %21
  %28 = load ptr, ptr %10, align 8
  %29 = tail call i32 @bmcg_sat_solver_read_cex_varvalue(ptr noundef %28, i32 noundef %19) #22
  %.not.i = icmp eq i32 %29, 0
  %30 = load i32, ptr %18, align 4
  %31 = shl nsw i32 %30, 1
  br i1 %.not.i, label %39, label %32

32:                                               ; preds = %27
  %33 = or disjoint i32 %31, 1
  %34 = load i32, ptr %8, align 4
  %35 = add nsw i32 %34, 1
  store i32 %35, ptr %8, align 4
  %36 = sext i32 %34 to i64
  %37 = getelementptr inbounds [32 x i32], ptr %11, i64 0, i64 %36
  store i32 %33, ptr %37, align 4
  %38 = add nsw i32 %.037.i, 1
  br label %44

39:                                               ; preds = %27
  %40 = load i32, ptr %6, align 8
  %41 = add nsw i32 %40, 1
  store i32 %41, ptr %6, align 8
  %42 = sext i32 %40 to i64
  %43 = getelementptr inbounds [32 x i32], ptr %12, i64 0, i64 %42
  store i32 %31, ptr %43, align 4
  br label %44

44:                                               ; preds = %39, %32, %23, %17
  %.1.i = phi i32 [ %.037.i, %17 ], [ %26, %23 ], [ %38, %32 ], [ %.037.i, %39 ]
  %indvars.iv.next.i = add nuw nsw i64 %indvars.iv.i, 1
  %exitcond.not.i = icmp eq i64 %indvars.iv.next.i, %16
  br i1 %exitcond.not.i, label %Maj3_ManFindFanin.exit, label %17, !llvm.loop !37

Maj3_ManFindFanin.exit:                           ; preds = %44
  %45 = icmp eq i32 %.1.i, 3
  br i1 %45, label %61, label %46

46:                                               ; preds = %Maj3_ManFindFanin.exit
  %47 = add nsw i32 %.02027, 1
  %48 = icmp slt i32 %.1.i, 3
  br i1 %48, label %._crit_edge34, label %54

._crit_edge34:                                    ; preds = %46
  %.pre = load i32, ptr %6, align 8
  br label %49

49:                                               ; preds = %._crit_edge34, %.thread
  %50 = phi i32 [ 0, %.thread ], [ %.pre, %._crit_edge34 ]
  %51 = phi i32 [ %15, %.thread ], [ %47, %._crit_edge34 ]
  %52 = load ptr, ptr %10, align 8
  %53 = tail call i32 @bmcg_sat_solver_addclause(ptr noundef %52, ptr noundef nonnull %12, i32 noundef %50) #22
  %.not22 = icmp eq i32 %53, 0
  br i1 %.not22, label %._crit_edge, label %61

54:                                               ; preds = %46
  %55 = load i32, ptr %7, align 8
  %56 = sub nsw i32 4, %55
  %57 = load i32, ptr %8, align 4
  %58 = tail call noundef i32 @llvm.smin.i32(i32 range(i32 -2147483643, -2147483648) %56, i32 %57)
  %59 = load ptr, ptr %10, align 8
  %60 = tail call i32 @bmcg_sat_solver_addclause(ptr noundef %59, ptr noundef nonnull %11, i32 noundef %58) #22
  %.not = icmp eq i32 %60, 0
  br i1 %.not, label %._crit_edge, label %61

61:                                               ; preds = %49, %54, %Maj3_ManFindFanin.exit
  %.1 = phi i32 [ %.02027, %Maj3_ManFindFanin.exit ], [ %51, %49 ], [ %47, %54 ]
  %.019 = add nsw i32 %.01929, 1
  %62 = load i32, ptr %3, align 8
  %63 = icmp slt i32 %.019, %62
  br i1 %63, label %13, label %._crit_edge, !llvm.loop !38

._crit_edge:                                      ; preds = %49, %54, %61, %1
  %.0 = phi i32 [ 0, %1 ], [ %.1, %61 ], [ -1, %54 ], [ -1, %49 ]
  ret i32 %.0
}